target datalayout = "e-m:e-p270:32:32-p271:32:32-p272:64:64-i64:64-i128:128-f80:128-n8:16:32:64-S128"
target triple = "x86_64-pc-linux-gnu"

; Function Attrs: nounwind sspstrong uwtable
define internal i32 @is_allowed_reverse_match(ptr noundef %0, ptr noundef %1, ptr noundef %2) #0 {
  %4 = alloca i32, align 4
  %5 = alloca ptr, align 8
  %6 = alloca ptr, align 8
  %7 = alloca ptr, align 8
  %8 = alloca i8, align 1
  %9 = alloca i32, align 4
  store ptr %0, ptr %5, align 8, !tbaa !13
  store ptr %1, ptr %6, align 8, !tbaa !13
  store ptr %2, ptr %7, align 8, !tbaa !14
  call void @llvm.lifetime.start.p0(i64 1, ptr %8) #4
  %10 = load ptr, ptr %5, align 8, !tbaa !13
  %11 = load i8, ptr %10, align 1, !tbaa !16
  store i8 %11, ptr %8, align 1, !tbaa !16
  %12 = load i8, ptr %8, align 1, !tbaa !16
  %13 = zext i8 %12 to i32
  %14 = icmp sle i32 %13, 126
  br i1 %14, label %23, label %15

15:                                               ; preds = %3
  %16 = load i8, ptr %8, align 1, !tbaa !16
  %17 = zext i8 %16 to i32
  %18 = icmp eq i32 %17, 142
  br i1 %18, label %23, label %19

19:                                               ; preds = %15
  %20 = load i8, ptr %8, align 1, !tbaa !16
  %21 = zext i8 %20 to i32
  %22 = icmp eq i32 %21, 143
  br i1 %22, label %23, label %24

23:                                               ; preds = %19, %15, %3
  store i32 1, ptr %4, align 4
  store i32 1, ptr %9, align 4
  br label %25

24:                                               ; preds = %19
  store i32 0, ptr %4, align 4
  store i32 1, ptr %9, align 4
  br label %25

25:                                               ; preds = %24, %23
  call void @llvm.lifetime.end.p0(i64 1, ptr %8) #4
  %26 = load i32, ptr %4, align 4
  ret i32 %26
}