; Function Attrs: mustprogress nofree norecurse nosync nounwind sspstrong willreturn memory(argmem: read) uwtable
define internal range(i32 0, 2) i32 @is_allowed_reverse_match(ptr noundef readonly captures(none) %0, ptr readnone captures(none) %1, ptr readnone captures(none) %2) #2 {
  %4 = load i8, ptr %0, align 1, !tbaa !6
  %5 = icmp ult i8 %4, 127
  %6 = and i8 %4, -2
  %7 = icmp eq i8 %6, -114
  %or.cond5 = or i1 %5, %7
  %. = zext i1 %or.cond5 to i32
  ret i32 %.
}